target datalayout = "e-m:e-p270:32:32-p271:32:32-p272:64:64-i64:64-i128:128-f80:128-n8:16:32:64-S128"
target triple = "x86_64-pc-linux-gnu"

%struct.Aig_Obj_t_ = type { %union.anon, ptr, ptr, i64, i32, i32, %union.anon.0 }
%union.anon = type { ptr }
%union.anon.0 = type { ptr }
%struct.Aig_Man_t_ = type { ptr, ptr, ptr, ptr, ptr, ptr, ptr, %struct.Aig_Obj_t_, i32, i32, i32, i32, i32, i32, [7 x i32], i32, ptr, i32, ptr, i32, ptr, i32, i32, i32, ptr, i32, i32, i32, i32, i32, ptr, ptr, i32, ptr, ptr, i32, ptr, ptr, i32, i32, i32, ptr, ptr, ptr, ptr, ptr, ptr, ptr, ptr, ptr, ptr, ptr, ptr, ptr, ptr, i32, ptr, ptr, ptr, ptr, i32, i64, i64, i64, ptr, ptr }
%struct.Vec_Ptr_t_ = type { i32, i32, ptr }

; Function Attrs: nounwind uwtable
define internal i32 @Aig_IsComplement(ptr noundef %0) #0 {
  %2 = alloca ptr, align 8
  store ptr %0, ptr %2, align 8
  %3 = load ptr, ptr %2, align 8
  %4 = ptrtoint ptr %3 to i64
  %5 = and i64 %4, 1
  %6 = trunc i64 %5 to i32
  ret i32 %6
}

; Function Attrs: nounwind uwtable
define internal ptr @Aig_ObjRepr(ptr noundef %0, ptr noundef %1) #0 {
  %3 = alloca ptr, align 8
  %4 = alloca ptr, align 8
  store ptr %0, ptr %3, align 8
  store ptr %1, ptr %4, align 8
  %5 = load ptr, ptr %3, align 8
  %6 = getelementptr inbounds %struct.Aig_Man_t_, ptr %5, i32 0, i32 31
  %7 = load ptr, ptr %6, align 8
  %8 = icmp ne ptr %7, null
  br i1 %8, label %9, label %19

9:                                                ; preds = %2
  %10 = load ptr, ptr %3, align 8
  %11 = getelementptr inbounds %struct.Aig_Man_t_, ptr %10, i32 0, i32 31
  %12 = load ptr, ptr %11, align 8
  %13 = load ptr, ptr %4, align 8
  %14 = getelementptr inbounds %struct.Aig_Obj_t_, ptr %13, i32 0, i32 5
  %15 = load i32, ptr %14, align 4
  %16 = sext i32 %15 to i64
  %17 = getelementptr inbounds ptr, ptr %12, i64 %16
  %18 = load ptr, ptr %17, align 8
  br label %20

19:                                               ; preds = %2
  br label %20

20:                                               ; preds = %19, %9
  %21 = phi ptr [ %18, %9 ], [ null, %19 ]
  ret ptr %21
}

; Function Attrs: nounwind uwtable
define internal ptr @Aig_Regular(ptr noundef %0) #0 {
  %2 = alloca ptr, align 8
  store ptr %0, ptr %2, align 8
  %3 = load ptr, ptr %2, align 8
  %4 = ptrtoint ptr %3 to i64
  %5 = and i64 %4, -2
  %6 = inttoptr i64 %5 to ptr
  ret ptr %6
}

; Function Attrs: nounwind uwtable
define internal ptr @Aig_NotCond(ptr noundef %0, i32 noundef %1) #0 {
  %3 = alloca ptr, align 8
  %4 = alloca i32, align 4
  store ptr %0, ptr %3, align 8
  store i32 %1, ptr %4, align 4
  %5 = load ptr, ptr %3, align 8
  %6 = ptrtoint ptr %5 to i64
  %7 = load i32, ptr %4, align 4
  %8 = sext i32 %7 to i64
  %9 = xor i64 %6, %8
  %10 = inttoptr i64 %9 to ptr
  ret ptr %10
}

; Function Attrs: nounwind uwtable
define internal i32 @Aig_ObjFaninC0(ptr noundef %0) #0 {
  %2 = alloca ptr, align 8
  store ptr %0, ptr %2, align 8
  %3 = load ptr, ptr %2, align 8
  %4 = getelementptr inbounds %struct.Aig_Obj_t_, ptr %3, i32 0, i32 1
  %5 = load ptr, ptr %4, align 8
  %6 = call i32 @Aig_IsComplement(ptr noundef %5)
  ret i32 %6
}

; Function Attrs: nounwind uwtable
define internal ptr @Aig_ObjFanin0(ptr noundef %0) #0 {
  %2 = alloca ptr, align 8
  store ptr %0, ptr %2, align 8
  %3 = load ptr, ptr %2, align 8
  %4 = getelementptr inbounds %struct.Aig_Obj_t_, ptr %3, i32 0, i32 1
  %5 = load ptr, ptr %4, align 8
  %6 = call ptr @Aig_Regular(ptr noundef %5)
  ret ptr %6
}

; Function Attrs: nounwind uwtable
define internal ptr @Aig_ObjGetRepr(ptr noundef %0, ptr noundef %1) #0 {
  %3 = alloca ptr, align 8
  %4 = alloca ptr, align 8
  %5 = alloca ptr, align 8
  %6 = alloca ptr, align 8
  store ptr %0, ptr %4, align 8
  store ptr %1, ptr %5, align 8
  %7 = load ptr, ptr %4, align 8
  %8 = load ptr, ptr %5, align 8
  %9 = call ptr @Aig_Regular(ptr noundef %8)
  %10 = call ptr @Aig_ObjRepr(ptr noundef %7, ptr noundef %9)
  store ptr %10, ptr %6, align 8
  %11 = icmp ne ptr %10, null
  br i1 %11, label %12, label %32

12:                                               ; preds = %2
  %13 = load ptr, ptr %6, align 8
  %14 = load ptr, ptr %5, align 8
  %15 = call ptr @Aig_Regular(ptr noundef %14)
  %16 = getelementptr inbounds %struct.Aig_Obj_t_, ptr %15, i32 0, i32 3
  %17 = load i64, ptr %16, align 8
  %18 = lshr i64 %17, 3
  %19 = and i64 %18, 1
  %20 = trunc i64 %19 to i32
  %21 = load ptr, ptr %6, align 8
  %22 = getelementptr inbounds %struct.Aig_Obj_t_, ptr %21, i32 0, i32 3
  %23 = load i64, ptr %22, align 8
  %24 = lshr i64 %23, 3
  %25 = and i64 %24, 1
  %26 = trunc i64 %25 to i32
  %27 = xor i32 %20, %26
  %28 = load ptr, ptr %5, align 8
  %29 = call i32 @Aig_IsComplement(ptr noundef %28)
  %30 = xor i32 %27, %29
  %31 = call ptr @Aig_NotCond(ptr noundef %13, i32 noundef %30)
  store ptr %31, ptr %3, align 8
  br label %34

32:                                               ; preds = %2
  %33 = load ptr, ptr %5, align 8
  store ptr %33, ptr %3, align 8
  br label %34

34:                                               ; preds = %32, %12
  %35 = load ptr, ptr %3, align 8
  ret ptr %35
}

; Function Attrs: nounwind uwtable
define internal ptr @Aig_ObjChild0Copy(ptr noundef %0) #0 {
  %2 = alloca ptr, align 8
  store ptr %0, ptr %2, align 8
  %3 = load ptr, ptr %2, align 8
  %4 = call ptr @Aig_ObjFanin0(ptr noundef %3)
  %5 = icmp ne ptr %4, null
  br i1 %5, label %6, label %14

6:                                                ; preds = %1
  %7 = load ptr, ptr %2, align 8
  %8 = call ptr @Aig_ObjFanin0(ptr noundef %7)
  %9 = getelementptr inbounds %struct.Aig_Obj_t_, ptr %8, i32 0, i32 6
  %10 = load ptr, ptr %9, align 8
  %11 = load ptr, ptr %2, align 8
  %12 = call i32 @Aig_ObjFaninC0(ptr noundef %11)
  %13 = call ptr @Aig_NotCond(ptr noundef %10, i32 noundef %12)
  br label %15

14:                                               ; preds = %1
  br label %15

15:                                               ; preds = %14, %6
  %16 = phi ptr [ %13, %6 ], [ null, %14 ]
  ret ptr %16
}

; Function Attrs: nounwind uwtable
define internal i32 @Aig_ManRegNum(ptr noundef %0) #0 {
  %2 = alloca ptr, align 8
  store ptr %0, ptr %2, align 8
  %3 = load ptr, ptr %2, align 8
  %4 = getelementptr inbounds %struct.Aig_Man_t_, ptr %3, i32 0, i32 8
  %5 = load i32, ptr %4, align 8
  ret i32 %5
}

; Function Attrs: nounwind uwtable
define internal ptr @Aig_ObjChild0CopyRepr(ptr noundef %0, ptr noundef %1) #0 {
  %3 = alloca ptr, align 8
  %4 = alloca ptr, align 8
  store ptr %0, ptr %3, align 8
  store ptr %1, ptr %4, align 8
  %5 = load ptr, ptr %3, align 8
  %6 = load ptr, ptr %4, align 8
  %7 = call ptr @Aig_ObjChild0Copy(ptr noundef %6)
  %8 = call ptr @Aig_ObjGetRepr(ptr noundef %5, ptr noundef %7)
  ret ptr %8
}

; Function Attrs: nounwind uwtable
define internal i32 @Aig_ObjIsNode(ptr noundef %0) #0 {
  %2 = alloca ptr, align 8
  store ptr %0, ptr %2, align 8
  %3 = load ptr, ptr %2, align 8
  %4 = getelementptr inbounds %struct.Aig_Obj_t_, ptr %3, i32 0, i32 3
  %5 = load i64, ptr %4, align 8
  %6 = and i64 %5, 7
  %7 = trunc i64 %6 to i32
  %8 = icmp eq i32 %7, 5
  br i1 %8, label %16, label %9

9:                                                ; preds = %1
  %10 = load ptr, ptr %2, align 8
  %11 = getelementptr inbounds %struct.Aig_Obj_t_, ptr %10, i32 0, i32 3
  %12 = load i64, ptr %11, align 8
  %13 = and i64 %12, 7
  %14 = trunc i64 %13 to i32
  %15 = icmp eq i32 %14, 6
  br label %16

16:                                               ; preds = %9, %1
  %17 = phi i1 [ true, %1 ], [ %15, %9 ]
  %18 = zext i1 %17 to i32
  ret i32 %18
}

; Function Attrs: nounwind uwtable
define internal ptr @Vec_PtrEntry(ptr noundef %0, i32 noundef %1) #0 {
  %3 = alloca ptr, align 8
  %4 = alloca i32, align 4
  store ptr %0, ptr %3, align 8
  store i32 %1, ptr %4, align 4
  %5 = load ptr, ptr %3, align 8
  %6 = getelementptr inbounds %struct.Vec_Ptr_t_, ptr %5, i32 0, i32 2
  %7 = load ptr, ptr %6, align 8
  %8 = load i32, ptr %4, align 4
  %9 = sext i32 %8 to i64
  %10 = getelementptr inbounds ptr, ptr %7, i64 %9
  %11 = load ptr, ptr %10, align 8
  ret ptr %11
}

; Function Attrs: nounwind uwtable
define internal i32 @Vec_PtrSize(ptr noundef %0) #0 {
  %2 = alloca ptr, align 8
  store ptr %0, ptr %2, align 8
  %3 = load ptr, ptr %2, align 8
  %4 = getelementptr inbounds %struct.Vec_Ptr_t_, ptr %3, i32 0, i32 1
  %5 = load i32, ptr %4, align 4
  ret i32 %5
}

; Function Attrs: nounwind uwtable
define internal ptr @Aig_ManConst1(ptr noundef %0) #0 {
  %2 = alloca ptr, align 8
  store ptr %0, ptr %2, align 8
  %3 = load ptr, ptr %2, align 8
  %4 = getelementptr inbounds %struct.Aig_Man_t_, ptr %3, i32 0, i32 6
  %5 = load ptr, ptr %4, align 8
  ret ptr %5
}

; Function Attrs: nounwind uwtable
define internal i32 @Aig_ManObjNumMax(ptr noundef %0) #0 {
  %2 = alloca ptr, align 8
  store ptr %0, ptr %2, align 8
  %3 = load ptr, ptr %2, align 8
  %4 = getelementptr inbounds %struct.Aig_Man_t_, ptr %3, i32 0, i32 4
  %5 = load ptr, ptr %4, align 8
  %6 = call i32 @Vec_PtrSize(ptr noundef %5)
  ret i32 %6
}

; Function Attrs: nounwind uwtable
define ptr @Dch_DeriveChoiceAigInt(ptr noundef %0, i32 noundef %1) #0 {
  %3 = alloca ptr, align 8
  %4 = alloca i32, align 4
  %5 = alloca ptr, align 8
  %6 = alloca ptr, align 8
  %7 = alloca i32, align 4
  store ptr %0, ptr %3, align 8
  store i32 %1, ptr %4, align 4
  %8 = load ptr, ptr %3, align 8
  %9 = call i32 @Aig_ManObjNumMax(ptr noundef %8)
  %10 = call ptr @Aig_ManStart(i32 noundef %9)
  store ptr %10, ptr %5, align 8
  %11 = load ptr, ptr %3, align 8
  %12 = call i32 @Aig_ManObjNumMax(ptr noundef %11)
  %13 = sext i32 %12 to i64
  %14 = call noalias ptr @calloc(i64 noundef %13, i64 noundef 8) #8
  %15 = load ptr, ptr %5, align 8
  %16 = getelementptr inbounds %struct.Aig_Man_t_, ptr %15, i32 0, i32 30
  store ptr %14, ptr %16, align 8
  %17 = load ptr, ptr %3, align 8
  %18 = call i32 @Aig_ManObjNumMax(ptr noundef %17)
  %19 = sext i32 %18 to i64
  %20 = call noalias ptr @calloc(i64 noundef %19, i64 noundef 8) #8
  %21 = load ptr, ptr %5, align 8
  %22 = getelementptr inbounds %struct.Aig_Man_t_, ptr %21, i32 0, i32 31
  store ptr %20, ptr %22, align 8
  %23 = load ptr, ptr %3, align 8
  call void @Aig_ManCleanData(ptr noundef %23)
  %24 = load ptr, ptr %5, align 8
  %25 = call ptr @Aig_ManConst1(ptr noundef %24)
  %26 = load ptr, ptr %3, align 8
  %27 = call ptr @Aig_ManConst1(ptr noundef %26)
  %28 = getelementptr inbounds %struct.Aig_Obj_t_, ptr %27, i32 0, i32 6
  store ptr %25, ptr %28, align 8
  store i32 0, ptr %7, align 4
  br label %29

29:                                               ; preds = %49, %2
  %30 = load i32, ptr %7, align 4
  %31 = load ptr, ptr %3, align 8
  %32 = getelementptr inbounds %struct.Aig_Man_t_, ptr %31, i32 0, i32 2
  %33 = load ptr, ptr %32, align 8
  %34 = call i32 @Vec_PtrSize(ptr noundef %33)
  %35 = icmp slt i32 %30, %34
  br i1 %35, label %36, label %42

36:                                               ; preds = %29
  %37 = load ptr, ptr %3, align 8
  %38 = getelementptr inbounds %struct.Aig_Man_t_, ptr %37, i32 0, i32 2
  %39 = load ptr, ptr %38, align 8
  %40 = load i32, ptr %7, align 4
  %41 = call ptr @Vec_PtrEntry(ptr noundef %39, i32 noundef %40)
  store ptr %41, ptr %6, align 8
  br label %42

42:                                               ; preds = %36, %29
  %43 = phi i1 [ false, %29 ], [ true, %36 ]
  br i1 %43, label %44, label %52

44:                                               ; preds = %42
  %45 = load ptr, ptr %5, align 8
  %46 = call ptr @Aig_ObjCreateCi(ptr noundef %45)
  %47 = load ptr, ptr %6, align 8
  %48 = getelementptr inbounds %struct.Aig_Obj_t_, ptr %47, i32 0, i32 6
  store ptr %46, ptr %48, align 8
  br label %49

49:                                               ; preds = %44
  %50 = load i32, ptr %7, align 4
  %51 = add nsw i32 %50, 1
  store i32 %51, ptr %7, align 4
  br label %29, !llvm.loop !15

52:                                               ; preds = %42
  store i32 0, ptr %7, align 4
  br label %53

53:                                               ; preds = %82, %52
  %54 = load i32, ptr %7, align 4
  %55 = load ptr, ptr %3, align 8
  %56 = getelementptr inbounds %struct.Aig_Man_t_, ptr %55, i32 0, i32 4
  %57 = load ptr, ptr %56, align 8
  %58 = call i32 @Vec_PtrSize(ptr noundef %57)
  %59 = icmp slt i32 %54, %58
  br i1 %59, label %60, label %66

60:                                               ; preds = %53
  %61 = load ptr, ptr %3, align 8
  %62 = getelementptr inbounds %struct.Aig_Man_t_, ptr %61, i32 0, i32 4
  %63 = load ptr, ptr %62, align 8
  %64 = load i32, ptr %7, align 4
  %65 = call ptr @Vec_PtrEntry(ptr noundef %63, i32 noundef %64)
  store ptr %65, ptr %6, align 8
  br label %66

66:                                               ; preds = %60, %53
  %67 = phi i1 [ false, %53 ], [ true, %60 ]
  br i1 %67, label %68, label %85

68:                                               ; preds = %66
  %69 = load ptr, ptr %6, align 8
  %70 = icmp eq ptr %69, null
  br i1 %70, label %75, label %71

71:                                               ; preds = %68
  %72 = load ptr, ptr %6, align 8
  %73 = call i32 @Aig_ObjIsNode(ptr noundef %72)
  %74 = icmp ne i32 %73, 0
  br i1 %74, label %76, label %75

75:                                               ; preds = %71, %68
  br label %81

76:                                               ; preds = %71
  %77 = load ptr, ptr %5, align 8
  %78 = load ptr, ptr %3, align 8
  %79 = load ptr, ptr %6, align 8
  %80 = load i32, ptr %4, align 4
  call void @Dch_DeriveChoiceAigNode(ptr noundef %77, ptr noundef %78, ptr noundef %79, i32 noundef %80)
  br label %81

81:                                               ; preds = %76, %75
  br label %82

82:                                               ; preds = %81
  %83 = load i32, ptr %7, align 4
  %84 = add nsw i32 %83, 1
  store i32 %84, ptr %7, align 4
  br label %53, !llvm.loop !16

85:                                               ; preds = %66
  store i32 0, ptr %7, align 4
  br label %86

86:                                               ; preds = %107, %85
  %87 = load i32, ptr %7, align 4
  %88 = load ptr, ptr %3, align 8
  %89 = getelementptr inbounds %struct.Aig_Man_t_, ptr %88, i32 0, i32 3
  %90 = load ptr, ptr %89, align 8
  %91 = call i32 @Vec_PtrSize(ptr noundef %90)
  %92 = icmp slt i32 %87, %91
  br i1 %92, label %93, label %99

93:                                               ; preds = %86
  %94 = load ptr, ptr %3, align 8
  %95 = getelementptr inbounds %struct.Aig_Man_t_, ptr %94, i32 0, i32 3
  %96 = load ptr, ptr %95, align 8
  %97 = load i32, ptr %7, align 4
  %98 = call ptr @Vec_PtrEntry(ptr noundef %96, i32 noundef %97)
  store ptr %98, ptr %6, align 8
  br label %99

99:                                               ; preds = %93, %86
  %100 = phi i1 [ false, %86 ], [ true, %93 ]
  br i1 %100, label %101, label %110

101:                                              ; preds = %99
  %102 = load ptr, ptr %5, align 8
  %103 = load ptr, ptr %5, align 8
  %104 = load ptr, ptr %6, align 8
  %105 = call ptr @Aig_ObjChild0CopyRepr(ptr noundef %103, ptr noundef %104)
  %106 = call ptr @Aig_ObjCreateCo(ptr noundef %102, ptr noundef %105)
  br label %107

107:                                              ; preds = %101
  %108 = load i32, ptr %7, align 4
  %109 = add nsw i32 %108, 1
  store i32 %109, ptr %7, align 4
  br label %86, !llvm.loop !17

110:                                              ; preds = %99
  %111 = load ptr, ptr %5, align 8
  %112 = load ptr, ptr %3, align 8
  %113 = call i32 @Aig_ManRegNum(ptr noundef %112)
  call void @Aig_ManSetRegNum(ptr noundef %111, i32 noundef %113)
  %114 = load ptr, ptr %5, align 8
  ret ptr %114
}