; Function Attrs: nounwind uwtable
define ptr @Dch_DeriveChoiceAigInt(ptr noundef %0, i32 noundef %1) local_unnamed_addr #1 {
  %3 = getelementptr i8, ptr %0, i64 32
  %.val48 = load ptr, ptr %3, align 8
  %4 = getelementptr i8, ptr %.val48, i64 4
  %.val48.val = load i32, ptr %4, align 4
  %5 = tail call ptr @Aig_ManStart(i32 noundef %.val48.val) #11
  %.val49 = load ptr, ptr %3, align 8
  %6 = getelementptr i8, ptr %.val49, i64 4
  %.val49.val = load i32, ptr %6, align 4
  %7 = sext i32 %.val49.val to i64
  %8 = tail call noalias ptr @calloc(i64 noundef %7, i64 noundef 8) #13
  %9 = getelementptr inbounds nuw i8, ptr %5, i64 248
  store ptr %8, ptr %9, align 8
  %.val50 = load ptr, ptr %3, align 8
  %10 = getelementptr i8, ptr %.val50, i64 4
  %.val50.val = load i32, ptr %10, align 4
  %11 = sext i32 %.val50.val to i64
  %12 = tail call noalias ptr @calloc(i64 noundef %11, i64 noundef 8) #13
  %13 = getelementptr inbounds nuw i8, ptr %5, i64 256
  store ptr %12, ptr %13, align 8
  tail call void @Aig_ManCleanData(ptr noundef %0) #11
  %14 = getelementptr i8, ptr %5, i64 48
  %.val52 = load ptr, ptr %14, align 8
  %15 = getelementptr i8, ptr %0, i64 48
  %.val51 = load ptr, ptr %15, align 8
  %16 = getelementptr inbounds nuw i8, ptr %.val51, i64 40
  store ptr %.val52, ptr %16, align 8
  %17 = getelementptr inbounds nuw i8, ptr %0, i64 16
  %18 = load ptr, ptr %17, align 8
  %19 = getelementptr i8, ptr %18, i64 4
  %.val4254 = load i32, ptr %19, align 4
  %20 = icmp sgt i32 %.val4254, 0
  br i1 %20, label %.lr.ph, label %.critedge.preheader

.critedge.preheader:                              ; preds = %.lr.ph, %2
  %21 = load ptr, ptr %3, align 8
  %22 = getelementptr i8, ptr %21, i64 4
  %.val4156 = load i32, ptr %22, align 4
  %23 = icmp sgt i32 %.val4156, 0
  br i1 %23, label %.lr.ph58, label %.critedge2.preheader

.lr.ph:                                           ; preds = %2, %.lr.ph
  %indvars.iv = phi i64 [ %indvars.iv.next, %.lr.ph ], [ 0, %2 ]
  %24 = phi ptr [ %30, %.lr.ph ], [ %18, %2 ]
  %25 = getelementptr i8, ptr %24, i64 8
  %.val45 = load ptr, ptr %25, align 8
  %26 = getelementptr inbounds nuw ptr, ptr %.val45, i64 %indvars.iv
  %27 = load ptr, ptr %26, align 8
  %28 = tail call ptr @Aig_ObjCreateCi(ptr noundef %5) #11
  %29 = getelementptr inbounds nuw i8, ptr %27, i64 40
  store ptr %28, ptr %29, align 8
  %indvars.iv.next = add nuw nsw i64 %indvars.iv, 1
  %30 = load ptr, ptr %17, align 8
  %31 = getelementptr i8, ptr %30, i64 4
  %.val42 = load i32, ptr %31, align 4
  %32 = sext i32 %.val42 to i64
  %33 = icmp slt i64 %indvars.iv.next, %32
  br i1 %33, label %.lr.ph, label %.critedge.preheader, !llvm.loop !14

.critedge2.preheader:                             ; preds = %.critedge, %.critedge.preheader
  %34 = getelementptr inbounds nuw i8, ptr %0, i64 24
  %35 = load ptr, ptr %34, align 8
  %36 = getelementptr i8, ptr %35, i64 4
  %.val59 = load i32, ptr %36, align 4
  %37 = icmp sgt i32 %.val59, 0
  br i1 %37, label %.lr.ph61, label %.critedge4

.lr.ph58:                                         ; preds = %.critedge.preheader, %.critedge
  %38 = phi ptr [ %49, %.critedge ], [ %21, %.critedge.preheader ]
  %indvars.iv63 = phi i64 [ %indvars.iv.next64, %.critedge ], [ 0, %.critedge.preheader ]
  %39 = getelementptr i8, ptr %38, i64 8
  %.val44 = load ptr, ptr %39, align 8
  %40 = getelementptr inbounds nuw ptr, ptr %.val44, i64 %indvars.iv63
  %41 = load ptr, ptr %40, align 8
  %42 = icmp eq ptr %41, null
  br i1 %42, label %.critedge, label %43

43:                                               ; preds = %.lr.ph58
  %44 = getelementptr i8, ptr %41, i64 24
  %.val46 = load i64, ptr %44, align 8
  %45 = trunc i64 %.val46 to i32
  %46 = and i32 %45, 7
  %47 = add nsw i32 %46, -7
  %narrow.i = icmp ult i32 %47, -2
  br i1 %narrow.i, label %.critedge, label %48

48:                                               ; preds = %43
  tail call void @Dch_DeriveChoiceAigNode(ptr noundef %5, ptr noundef nonnull %0, ptr noundef nonnull %41, i32 noundef %1)
  %.pre = load ptr, ptr %3, align 8
  br label %.critedge

.critedge:                                        ; preds = %48, %43, %.lr.ph58
  %49 = phi ptr [ %.pre, %48 ], [ %38, %43 ], [ %38, %.lr.ph58 ]
  %indvars.iv.next64 = add nuw nsw i64 %indvars.iv63, 1
  %50 = getelementptr i8, ptr %49, i64 4
  %.val41 = load i32, ptr %50, align 4
  %51 = sext i32 %.val41 to i64
  %52 = icmp slt i64 %indvars.iv.next64, %51
  br i1 %52, label %.lr.ph58, label %.critedge2.preheader, !llvm.loop !15

.lr.ph61:                                         ; preds = %.critedge2.preheader, %Aig_ObjChild0CopyRepr.exit
  %indvars.iv66 = phi i64 [ %indvars.iv.next67, %Aig_ObjChild0CopyRepr.exit ], [ 0, %.critedge2.preheader ]
  %53 = phi ptr [ %93, %Aig_ObjChild0CopyRepr.exit ], [ %35, %.critedge2.preheader ]
  %54 = getelementptr i8, ptr %53, i64 8
  %.val43 = load ptr, ptr %54, align 8
  %55 = getelementptr inbounds nuw ptr, ptr %.val43, i64 %indvars.iv66
  %56 = load ptr, ptr %55, align 8
  %57 = getelementptr i8, ptr %56, i64 8
  %.val47 = load ptr, ptr %57, align 8
  %58 = ptrtoint ptr %.val47 to i64
  %59 = and i64 %58, -2
  %.not.i.i = icmp eq i64 %59, 0
  br i1 %.not.i.i, label %Aig_ObjChild0Copy.exit.i, label %60

60:                                               ; preds = %.lr.ph61
  %61 = inttoptr i64 %59 to ptr
  %62 = getelementptr inbounds nuw i8, ptr %61, i64 40
  %63 = load ptr, ptr %62, align 8
  %64 = and i64 %58, 1
  %65 = ptrtoint ptr %63 to i64
  %66 = xor i64 %64, %65
  %67 = inttoptr i64 %66 to ptr
  br label %Aig_ObjChild0Copy.exit.i

Aig_ObjChild0Copy.exit.i:                         ; preds = %60, %.lr.ph61
  %68 = phi ptr [ %67, %60 ], [ null, %.lr.ph61 ]
  %.val2.i = load ptr, ptr %13, align 8
  %69 = ptrtoint ptr %68 to i64
  %70 = and i64 %69, -2
  %71 = inttoptr i64 %70 to ptr
  %.not.i.i.i = icmp eq ptr %.val2.i, null
  br i1 %.not.i.i.i, label %Aig_ObjChild0CopyRepr.exit, label %Aig_ObjRepr.exit.i.i

Aig_ObjRepr.exit.i.i:                             ; preds = %Aig_ObjChild0Copy.exit.i
  %72 = getelementptr inbounds nuw i8, ptr %71, i64 36
  %73 = load i32, ptr %72, align 4
  %74 = sext i32 %73 to i64
  %75 = getelementptr inbounds ptr, ptr %.val2.i, i64 %74
  %76 = load ptr, ptr %75, align 8
  %.not.i3.i = icmp eq ptr %76, null
  br i1 %.not.i3.i, label %Aig_ObjChild0CopyRepr.exit, label %77

77:                                               ; preds = %Aig_ObjRepr.exit.i.i
  %78 = getelementptr inbounds nuw i8, ptr %71, i64 24
  %79 = load i64, ptr %78, align 8
  %80 = getelementptr inbounds nuw i8, ptr %76, i64 24
  %81 = load i64, ptr %80, align 8
  %82 = xor i64 %81, %79
  %83 = trunc i64 %82 to i32
  %84 = lshr i32 %83, 3
  %85 = trunc i64 %69 to i32
  %86 = xor i32 %84, %85
  %87 = and i32 %86, 1
  %88 = ptrtoint ptr %76 to i64
  %89 = zext nneg i32 %87 to i64
  %90 = xor i64 %89, %88
  %91 = inttoptr i64 %90 to ptr
  br label %Aig_ObjChild0CopyRepr.exit

Aig_ObjChild0CopyRepr.exit:                       ; preds = %Aig_ObjChild0Copy.exit.i, %Aig_ObjRepr.exit.i.i, %77
  %.0.i.i = phi ptr [ %91, %77 ], [ %68, %Aig_ObjRepr.exit.i.i ], [ %68, %Aig_ObjChild0Copy.exit.i ]
  %92 = tail call ptr @Aig_ObjCreateCo(ptr noundef nonnull %5, ptr noundef %.0.i.i) #11
  %indvars.iv.next67 = add nuw nsw i64 %indvars.iv66, 1
  %93 = load ptr, ptr %34, align 8
  %94 = getelementptr i8, ptr %93, i64 4
  %.val = load i32, ptr %94, align 4
  %95 = sext i32 %.val to i64
  %96 = icmp slt i64 %indvars.iv.next67, %95
  br i1 %96, label %.lr.ph61, label %.critedge4, !llvm.loop !16

.critedge4:                                       ; preds = %Aig_ObjChild0CopyRepr.exit, %.critedge2.preheader
  %97 = getelementptr i8, ptr %0, i64 104
  %.val53 = load i32, ptr %97, align 8
  tail call void @Aig_ManSetRegNum(ptr noundef %5, i32 noundef %.val53) #11
  ret ptr %5
}